; Function Attrs: nounwind uwtable
define internal i32 @filter_frame(ptr noundef readonly captures(none) %0, ptr noundef %1) #0 {
  %3 = alloca ptr, align 8
  store ptr %1, ptr %3, align 8, !tbaa !17
  %4 = getelementptr inbounds nuw i8, ptr %0, i64 16
  %5 = load ptr, ptr %4, align 8, !tbaa !19
  %6 = getelementptr inbounds nuw i8, ptr %5, i64 72
  %7 = load ptr, ptr %6, align 8, !tbaa !30
  %8 = getelementptr inbounds nuw i8, ptr %5, i64 56
  %9 = load ptr, ptr %8, align 8, !tbaa !39
  %10 = load ptr, ptr %9, align 8, !tbaa !40
  %11 = getelementptr inbounds nuw i8, ptr %1, i64 276
  %12 = load i32, ptr %11, align 4, !tbaa !42
  %13 = and i32 %12, 8
  %.not = icmp eq i32 %13, 0
  br i1 %.not, label %19, label %14

14:                                               ; preds = %2
  %15 = lshr i32 %12, 4
  %.lobit = and i32 %15, 1
  %16 = getelementptr inbounds nuw i8, ptr %7, i64 8
  %17 = load i32, ptr %16, align 8, !tbaa !47
  %18 = icmp eq i32 %.lobit, %17
  br i1 %18, label %19, label %22

19:                                               ; preds = %14, %2
  %20 = phi ptr [ @.str.4, %14 ], [ @.str.5, %2 ]
  tail call void (ptr, i32, ptr, ...) @av_log(ptr noundef nonnull %5, i32 noundef 40, ptr noundef nonnull @.str.3, ptr noundef nonnull %20) #4
  %21 = tail call i32 @ff_filter_frame(ptr noundef %10, ptr noundef nonnull %1) #4
  br label %100

22:                                               ; preds = %14
  %23 = tail call i32 @av_frame_is_writable(ptr noundef nonnull %1) #4
  %.not82 = icmp eq i32 %23, 0
  br i1 %.not82, label %24, label %33

24:                                               ; preds = %22
  %25 = getelementptr inbounds nuw i8, ptr %10, i64 40
  %26 = load i32, ptr %25, align 8, !tbaa !49
  %27 = getelementptr inbounds nuw i8, ptr %10, i64 44
  %28 = load i32, ptr %27, align 4, !tbaa !50
  %29 = tail call ptr @ff_get_video_buffer(ptr noundef %10, i32 noundef %26, i32 noundef %28) #4
  %.not83 = icmp eq ptr %29, null
  br i1 %.not83, label %30, label %31

30:                                               ; preds = %24
  call void @av_frame_free(ptr noundef nonnull %3) #4
  br label %100

31:                                               ; preds = %24
  %32 = tail call i32 @av_frame_copy_props(ptr noundef nonnull %29, ptr noundef nonnull %1) #4
  br label %33

33:                                               ; preds = %22, %31
  %.0 = phi ptr [ %29, %31 ], [ %1, %22 ]
  %34 = load i32, ptr %16, align 8, !tbaa !47
  %.not84 = icmp eq i32 %34, 0
  %35 = select i1 %.not84, ptr @.str.8, ptr @.str.7
  tail call void (ptr, i32, ptr, ...) @av_log(ptr noundef nonnull %5, i32 noundef 56, ptr noundef nonnull @.str.6, ptr noundef nonnull %35) #4
  %36 = getelementptr inbounds nuw i8, ptr %1, i64 108
  %37 = load i32, ptr %36, align 4, !tbaa !51
  %.fr116 = freeze i32 %37
  %38 = getelementptr inbounds nuw i8, ptr %1, i64 64
  %39 = getelementptr inbounds nuw i8, ptr %.0, i64 64
  %40 = icmp sgt i32 %.fr116, 2
  %41 = getelementptr inbounds nuw i8, ptr %7, i64 12
  %42 = icmp sgt i32 %.fr116, 0
  %43 = add nsw i32 %.fr116, -1
  br i1 %42, label %.split.us, label %.critedge

.split.us:                                        ; preds = %33, %.loopexit92.us
  %indvars.iv130 = phi i64 [ %indvars.iv.next131, %.loopexit92.us ], [ 0, %33 ]
  %44 = getelementptr inbounds nuw [8 x ptr], ptr %1, i64 0, i64 %indvars.iv130
  %45 = load ptr, ptr %44, align 8, !tbaa !52
  %.not85.us = icmp eq ptr %45, null
  br i1 %.not85.us, label %.critedge, label %46

46:                                               ; preds = %.split.us
  %47 = getelementptr inbounds nuw [8 x i32], ptr %38, i64 0, i64 %indvars.iv130
  %48 = load i32, ptr %47, align 4, !tbaa !53
  %.not86.us = icmp eq i32 %48, 0
  br i1 %.not86.us, label %.critedge, label %49

49:                                               ; preds = %46
  %50 = getelementptr inbounds nuw [8 x i32], ptr %39, i64 0, i64 %indvars.iv130
  %51 = load i32, ptr %50, align 4, !tbaa !53
  %52 = select i1 %40, i32 %51, i32 0
  %53 = select i1 %40, i32 %48, i32 0
  %54 = getelementptr inbounds nuw [4 x i32], ptr %41, i64 0, i64 %indvars.iv130
  %55 = load i32, ptr %54, align 4, !tbaa !53
  %56 = getelementptr inbounds nuw [8 x ptr], ptr %.0, i64 0, i64 %indvars.iv130
  %57 = load ptr, ptr %56, align 8, !tbaa !52
  %58 = load i32, ptr %16, align 8, !tbaa !47
  %.not89.us = icmp eq i32 %58, 0
  br i1 %.not89.us, label %.lr.ph99.us, label %.lr.ph.us

59:                                               ; preds = %.lr.ph.us, %59
  %.07295.us = phi ptr [ %45, %.lr.ph.us ], [ %65, %59 ]
  %.07394.us = phi ptr [ %57, %.lr.ph.us ], [ %64, %59 ]
  %.07593.us = phi i32 [ 0, %.lr.ph.us ], [ %60, %59 ]
  %60 = add nuw nsw i32 %.07593.us, 1
  %61 = load i32, ptr %36, align 4, !tbaa !51
  %62 = icmp slt i32 %60, %61
  %. = select i1 %62, i64 %91, i64 %89
  %63 = getelementptr inbounds i8, ptr %.07295.us, i64 %.
  tail call void @llvm.memcpy.p0.p0.i64(ptr align 1 %.07394.us, ptr align 1 %63, i64 %90, i1 false)
  %64 = getelementptr inbounds i8, ptr %.07394.us, i64 %92
  %65 = getelementptr inbounds i8, ptr %.07295.us, i64 %91
  %exitcond129.not = icmp eq i32 %60, %.fr116
  br i1 %exitcond129.not, label %.loopexit92.us, label %59, !llvm.loop !54

.lr.ph99.us:                                      ; preds = %49
  %66 = mul nsw i32 %52, %43
  %67 = sext i32 %66 to i64
  %68 = getelementptr inbounds i8, ptr %57, i64 %67
  %69 = mul nsw i32 %53, %43
  %70 = sext i32 %69 to i64
  %71 = getelementptr inbounds i8, ptr %45, i64 %70
  %72 = sext i32 %53 to i64
  %73 = sub nsw i64 0, %72
  %74 = sext i32 %55 to i64
  %75 = shl nsw i32 %53, 1
  %76 = sext i32 %75 to i64
  %77 = sext i32 %52 to i64
  %78 = sub nsw i64 0, %77
  br label %79

.loopexit92.us:                                   ; preds = %59, %81, %.thread
  %indvars.iv.next131 = add nuw nsw i64 %indvars.iv130, 1
  %exitcond133.not = icmp eq i64 %indvars.iv.next131, 4
  br i1 %exitcond133.not, label %.critedge, label %.split.us, !llvm.loop !55

79:                                               ; preds = %.lr.ph99.us, %81
  %.198.us = phi ptr [ %71, %.lr.ph99.us ], [ %84, %81 ]
  %.17497.us = phi ptr [ %68, %.lr.ph99.us ], [ %83, %81 ]
  %.17696.us = phi i32 [ %43, %.lr.ph99.us ], [ %85, %81 ]
  %.not90.us = icmp eq i32 %.17696.us, 0
  br i1 %.not90.us, label %.thread, label %81

.thread:                                          ; preds = %79
  %80 = getelementptr inbounds i8, ptr %.198.us, i64 %76
  tail call void @llvm.memcpy.p0.p0.i64(ptr align 1 %.17497.us, ptr align 1 %80, i64 %74, i1 false)
  br label %.loopexit92.us

81:                                               ; preds = %79
  %82 = getelementptr inbounds i8, ptr %.198.us, i64 %73
  tail call void @llvm.memcpy.p0.p0.i64(ptr align 1 %.17497.us, ptr align 1 %82, i64 %74, i1 false)
  %83 = getelementptr inbounds i8, ptr %.17497.us, i64 %78
  %84 = getelementptr inbounds i8, ptr %.198.us, i64 %73
  %85 = add nsw i32 %.17696.us, -1
  %86 = icmp sgt i32 %.17696.us, 0
  br i1 %86, label %79, label %.loopexit92.us, !llvm.loop !56

.lr.ph.us:                                        ; preds = %49
  %87 = shl nsw i32 %53, 1
  %88 = sext i32 %87 to i64
  %89 = sub nsw i64 0, %88
  %90 = sext i32 %55 to i64
  %91 = sext i32 %53 to i64
  %92 = sext i32 %52 to i64
  br label %59

.critedge:                                        ; preds = %.split.us, %46, %.loopexit92.us, %33
  %93 = load i32, ptr %16, align 8, !tbaa !47
  %.not87 = icmp eq i32 %93, 0
  %94 = getelementptr inbounds nuw i8, ptr %.0, i64 276
  %95 = load i32, ptr %94, align 4, !tbaa !42
  %96 = and i32 %95, -17
  %masksel = select i1 %.not87, i32 0, i32 16
  %.sink = or disjoint i32 %96, %masksel
  store i32 %.sink, ptr %94, align 4, !tbaa !42
  %.not88 = icmp eq ptr %1, %.0
  br i1 %.not88, label %98, label %97

97:                                               ; preds = %.critedge
  call void @av_frame_free(ptr noundef nonnull %3) #4
  br label %98

98:                                               ; preds = %97, %.critedge
  %99 = call i32 @ff_filter_frame(ptr noundef %10, ptr noundef nonnull %.0) #4
  br label %100

100:                                              ; preds = %98, %30, %19
  %.077 = phi i32 [ %21, %19 ], [ %99, %98 ], [ -12, %30 ]
  ret i32 %.077
}